; Function Attrs: mustprogress uwtable
define hidden void @_ZN4cvc58internal9BitVector11mkMinSignedEj(ptr dead_on_unwind noalias writable sret(%"class.cvc5::internal::BitVector") align 8 initializes((0, 4)) %0, i32 noundef %1) local_unnamed_addr #3 align 2 personality ptr @__gxx_personality_v0 {
  store i32 %1, ptr %0, align 8, !tbaa !11
  %3 = getelementptr inbounds nuw i8, ptr %0, i64 8
  tail call void @__gmpz_init(ptr noundef nonnull align 8 dereferenceable(16) %3) #16
  %4 = add i32 %1, -1
  invoke void @_ZN4cvc58internal7Integer6setBitEjb(ptr noundef nonnull align 8 dereferenceable(16) %3, i32 noundef %4, i1 noundef zeroext true)
          to label %_ZN4cvc58internal9BitVector6setBitEjb.exit unwind label %5

5:                                                ; preds = %2
  %6 = landingpad { ptr, i32 }
          cleanup
  invoke void @__gmpz_clear(ptr noundef nonnull align 8 dereferenceable(16) %3)
          to label %_ZN4cvc58internal9BitVectorD2Ev.exit unwind label %7

7:                                                ; preds = %5
  %8 = landingpad { ptr, i32 }
          catch ptr null
  %9 = extractvalue { ptr, i32 } %8, 0
  tail call void @__clang_call_terminate(ptr %9) #17
  unreachable

_ZN4cvc58internal9BitVectorD2Ev.exit:             ; preds = %5
  resume { ptr, i32 } %6

_ZN4cvc58internal9BitVector6setBitEjb.exit:       ; preds = %2
  ret void
}